target datalayout = "e-m:e-p270:32:32-p271:32:32-p272:64:64-i64:64-i128:128-f80:128-n8:16:32:64-S128"
target triple = "x86_64-pc-linux-gnu"

%struct.b2Vec2 = type { float, float }
%struct.b2JointSim = type { i32, i32, i32, i32, %struct.b2Vec2, %struct.b2Vec2, float, float, float, float, %union.anon.0 }
%union.anon.0 = type { %struct.b2PrismaticJoint }
%struct.b2PrismaticJoint = type { %struct.b2Vec2, %struct.b2Vec2, float, float, float, float, float, float, float, float, float, float, float, i32, i32, %struct.b2Vec2, %struct.b2Vec2, %struct.b2Vec2, %struct.b2Vec2, float, float, %struct.b2Softness, i8, i8, i8 }
%struct.b2Softness = type { float, float, float }

; Function Attrs: nounwind uwtable
define hidden void @b2WarmStartJoint(ptr noundef %0, ptr noundef %1) #0 {
  %3 = alloca ptr, align 8
  %4 = alloca ptr, align 8
  store ptr %0, ptr %3, align 8, !tbaa !121
  store ptr %1, ptr %4, align 8, !tbaa !278
  %5 = load ptr, ptr %3, align 8, !tbaa !121
  %6 = getelementptr inbounds nuw %struct.b2JointSim, ptr %5, i32 0, i32 3
  %7 = load i32, ptr %6, align 4, !tbaa !130
  switch i32 %7, label %29 [
    i32 0, label %8
    i32 1, label %11
    i32 2, label %14
    i32 3, label %30
    i32 4, label %17
    i32 5, label %20
    i32 6, label %23
    i32 7, label %26
  ]

8:                                                ; preds = %2
  %9 = load ptr, ptr %3, align 8, !tbaa !121
  %10 = load ptr, ptr %4, align 8, !tbaa !278
  call void @b2WarmStartDistanceJoint(ptr noundef %9, ptr noundef %10)
  br label %30

11:                                               ; preds = %2
  %12 = load ptr, ptr %3, align 8, !tbaa !121
  %13 = load ptr, ptr %4, align 8, !tbaa !278
  call void @b2WarmStartMotorJoint(ptr noundef %12, ptr noundef %13)
  br label %30

14:                                               ; preds = %2
  %15 = load ptr, ptr %3, align 8, !tbaa !121
  %16 = load ptr, ptr %4, align 8, !tbaa !278
  call void @b2WarmStartMouseJoint(ptr noundef %15, ptr noundef %16)
  br label %30

17:                                               ; preds = %2
  %18 = load ptr, ptr %3, align 8, !tbaa !121
  %19 = load ptr, ptr %4, align 8, !tbaa !278
  call void @b2WarmStartPrismaticJoint(ptr noundef %18, ptr noundef %19)
  br label %30

20:                                               ; preds = %2
  %21 = load ptr, ptr %3, align 8, !tbaa !121
  %22 = load ptr, ptr %4, align 8, !tbaa !278
  call void @b2WarmStartRevoluteJoint(ptr noundef %21, ptr noundef %22)
  br label %30

23:                                               ; preds = %2
  %24 = load ptr, ptr %3, align 8, !tbaa !121
  %25 = load ptr, ptr %4, align 8, !tbaa !278
  call void @b2WarmStartWeldJoint(ptr noundef %24, ptr noundef %25)
  br label %30

26:                                               ; preds = %2
  %27 = load ptr, ptr %3, align 8, !tbaa !121
  %28 = load ptr, ptr %4, align 8, !tbaa !278
  call void @b2WarmStartWheelJoint(ptr noundef %27, ptr noundef %28)
  br label %30

29:                                               ; preds = %2
  br label %30

30:                                               ; preds = %29, %26, %23, %20, %17, %2, %14, %11, %8
  ret void
}