; Function Attrs: nounwind uwtable
define hidden void @b2WarmStartJoint(ptr noundef %0, ptr noundef %1) local_unnamed_addr #0 {
  %3 = getelementptr inbounds nuw i8, ptr %0, i64 12
  %4 = load i32, ptr %3, align 4, !tbaa !107
  switch i32 %4, label %12 [
    i32 0, label %5
    i32 1, label %6
    i32 2, label %7
    i32 7, label %11
    i32 4, label %8
    i32 5, label %9
    i32 6, label %10
  ]

5:                                                ; preds = %2
  tail call void @b2WarmStartDistanceJoint(ptr noundef nonnull %0, ptr noundef %1) #10
  br label %12

6:                                                ; preds = %2
  tail call void @b2WarmStartMotorJoint(ptr noundef nonnull %0, ptr noundef %1) #10
  br label %12

7:                                                ; preds = %2
  tail call void @b2WarmStartMouseJoint(ptr noundef nonnull %0, ptr noundef %1) #10
  br label %12

8:                                                ; preds = %2
  tail call void @b2WarmStartPrismaticJoint(ptr noundef nonnull %0, ptr noundef %1) #10
  br label %12

9:                                                ; preds = %2
  tail call void @b2WarmStartRevoluteJoint(ptr noundef nonnull %0, ptr noundef %1) #10
  br label %12

10:                                               ; preds = %2
  tail call void @b2WarmStartWeldJoint(ptr noundef nonnull %0, ptr noundef %1) #10
  br label %12

11:                                               ; preds = %2
  tail call void @b2WarmStartWheelJoint(ptr noundef nonnull %0, ptr noundef %1) #10
  br label %12

12:                                               ; preds = %2, %11, %10, %9, %8, %7, %6, %5
  ret void
}